(lp0
S'Season'
p1
aS'ast_1'
p2
aS'blk_1'
p3
aS'dr_1'
p4
aS'fga_1'
p5
aS'fga3_1'
p6
aS'fgm_1'
p7
aS'fgm3_1'
p8
aS'fta_1'
p9
aS'ftm_1'
p10
aS'or_1'
p11
aS'pf_1'
p12
aS'score_1'
p13
aS'stl_1'
p14
aS'to_1'
p15
aS'ast_2'
p16
aS'blk_2'
p17
aS'dr_2'
p18
aS'fga_2'
p19
aS'fga3_2'
p20
aS'fgm_2'
p21
aS'fgm3_2'
p22
aS'fta_2'
p23
aS'ftm_2'
p24
aS'or_2'
p25
aS'pf_2'
p26
aS'score_2'
p27
aS'stl_2'
p28
aS'to_2'
p29
a.